target datalayout = "e-m:e-p270:32:32-p271:32:32-p272:64:64-i64:64-i128:128-f80:128-n8:16:32:64-S128"
target triple = "x86_64-unknown-linux-gnu"

%struct.b3ContactSolverInfoData = type { float, float, float, float, float, i32, float, float, float, float, float, i32, float, float, float, float, i32, i32, i32, float, float }
%struct.b3ContactSolverInfo = type { %struct.b3ContactSolverInfoData }

; Function Attrs: mustprogress nounwind uwtable
define linkonce_odr dso_local void @_ZN19b3ContactSolverInfoC2Ev(ptr noundef nonnull align 4 dereferenceable(84) %this) unnamed_addr #1 comdat align 2 {
entry:
  %this.addr = alloca ptr, align 8
  store ptr %this, ptr %this.addr, align 8
  %this1 = load ptr, ptr %this.addr, align 8
  %m_tau = getelementptr inbounds %struct.b3ContactSolverInfoData, ptr %this1, i32 0, i32 0
  store float 0x3FE3333340000000, ptr %m_tau, align 4
  %m_damping = getelementptr inbounds %struct.b3ContactSolverInfoData, ptr %this1, i32 0, i32 1
  store float 1.000000e+00, ptr %m_damping, align 4
  %m_friction = getelementptr inbounds %struct.b3ContactSolverInfoData, ptr %this1, i32 0, i32 2
  store float 0x3FD3333340000000, ptr %m_friction, align 4
  %m_timeStep = getelementptr inbounds %struct.b3ContactSolverInfoData, ptr %this1, i32 0, i32 3
  store float 0x3F91111120000000, ptr %m_timeStep, align 4
  %m_restitution = getelementptr inbounds %struct.b3ContactSolverInfoData, ptr %this1, i32 0, i32 4
  store float 0.000000e+00, ptr %m_restitution, align 4
  %m_maxErrorReduction = getelementptr inbounds %struct.b3ContactSolverInfoData, ptr %this1, i32 0, i32 6
  store float 2.000000e+01, ptr %m_maxErrorReduction, align 4
  %m_numIterations = getelementptr inbounds %struct.b3ContactSolverInfoData, ptr %this1, i32 0, i32 5
  store i32 10, ptr %m_numIterations, align 4
  %m_erp = getelementptr inbounds %struct.b3ContactSolverInfoData, ptr %this1, i32 0, i32 8
  store float 0x3FC99999A0000000, ptr %m_erp, align 4
  %m_erp2 = getelementptr inbounds %struct.b3ContactSolverInfoData, ptr %this1, i32 0, i32 9
  store float 0x3FE99999A0000000, ptr %m_erp2, align 4
  %m_globalCfm = getelementptr inbounds %struct.b3ContactSolverInfoData, ptr %this1, i32 0, i32 10
  store float 0.000000e+00, ptr %m_globalCfm, align 4
  %m_sor = getelementptr inbounds %struct.b3ContactSolverInfoData, ptr %this1, i32 0, i32 7
  store float 1.000000e+00, ptr %m_sor, align 4
  %m_splitImpulse = getelementptr inbounds %struct.b3ContactSolverInfoData, ptr %this1, i32 0, i32 11
  store i32 1, ptr %m_splitImpulse, align 4
  %m_splitImpulsePenetrationThreshold = getelementptr inbounds %struct.b3ContactSolverInfoData, ptr %this1, i32 0, i32 12
  store float 0xBFA47AE140000000, ptr %m_splitImpulsePenetrationThreshold, align 4
  %m_splitImpulseTurnErp = getelementptr inbounds %struct.b3ContactSolverInfoData, ptr %this1, i32 0, i32 13
  store float 0x3FB99999A0000000, ptr %m_splitImpulseTurnErp, align 4
  %m_linearSlop = getelementptr inbounds %struct.b3ContactSolverInfoData, ptr %this1, i32 0, i32 14
  store float 0.000000e+00, ptr %m_linearSlop, align 4
  %m_warmstartingFactor = getelementptr inbounds %struct.b3ContactSolverInfoData, ptr %this1, i32 0, i32 15
  store float 0x3FEB333340000000, ptr %m_warmstartingFactor, align 4
  %m_solverMode = getelementptr inbounds %struct.b3ContactSolverInfoData, ptr %this1, i32 0, i32 16
  store i32 260, ptr %m_solverMode, align 4
  %m_restingContactRestitutionThreshold = getelementptr inbounds %struct.b3ContactSolverInfoData, ptr %this1, i32 0, i32 17
  store i32 2, ptr %m_restingContactRestitutionThreshold, align 4
  %m_minimumSolverBatchSize = getelementptr inbounds %struct.b3ContactSolverInfoData, ptr %this1, i32 0, i32 18
  store i32 128, ptr %m_minimumSolverBatchSize, align 4
  %m_maxGyroscopicForce = getelementptr inbounds %struct.b3ContactSolverInfoData, ptr %this1, i32 0, i32 19
  store float 1.000000e+02, ptr %m_maxGyroscopicForce, align 4
  %m_singleAxisRollingFrictionThreshold = getelementptr inbounds %struct.b3ContactSolverInfoData, ptr %this1, i32 0, i32 20
  store float 0x46293E5940000000, ptr %m_singleAxisRollingFrictionThreshold, align 4
  ret void
}

; Function Attrs: mustprogress uwtable
define dso_local void @_ZN24b3GpuPgsConstraintSolver11solveJointsEiP13b3OpenCLArrayI15b3RigidBodyDataEPS0_I13b3InertiaDataEiPS0_I22b3GpuGenericConstraintE(ptr noundef nonnull align 8 dereferenceable(228) %this, i32 noundef %numBodies, ptr noundef %gpuBodies, ptr noundef %gpuInertias, i32 noundef %numConstraints, ptr noundef %gpuConstraints) #2 align 2 {
entry:
  %this.addr = alloca ptr, align 8
  %numBodies.addr = alloca i32, align 4
  %gpuBodies.addr = alloca ptr, align 8
  %gpuInertias.addr = alloca ptr, align 8
  %numConstraints.addr = alloca i32, align 4
  %gpuConstraints.addr = alloca ptr, align 8
  %infoGlobal = alloca %struct.b3ContactSolverInfo, align 4
  store ptr %this, ptr %this.addr, align 8
  store i32 %numBodies, ptr %numBodies.addr, align 4
  store ptr %gpuBodies, ptr %gpuBodies.addr, align 8
  store ptr %gpuInertias, ptr %gpuInertias.addr, align 8
  store i32 %numConstraints, ptr %numConstraints.addr, align 4
  store ptr %gpuConstraints, ptr %gpuConstraints.addr, align 8
  %this1 = load ptr, ptr %this.addr, align 8
  call void @_ZN19b3ContactSolverInfoC2Ev(ptr noundef nonnull align 4 dereferenceable(84) %infoGlobal)
  %m_splitImpulse = getelementptr inbounds %struct.b3ContactSolverInfoData, ptr %infoGlobal, i32 0, i32 11
  store i32 0, ptr %m_splitImpulse, align 4
  %m_timeStep = getelementptr inbounds %struct.b3ContactSolverInfoData, ptr %infoGlobal, i32 0, i32 3
  store float 0x3F91111120000000, ptr %m_timeStep, align 4
  %m_numIterations = getelementptr inbounds %struct.b3ContactSolverInfoData, ptr %infoGlobal, i32 0, i32 5
  store i32 4, ptr %m_numIterations, align 4
  %m_solverMode = getelementptr inbounds %struct.b3ContactSolverInfoData, ptr %infoGlobal, i32 0, i32 16
  %0 = load i32, ptr %m_solverMode, align 4
  %or = or i32 %0, 16
  store i32 %or, ptr %m_solverMode, align 4
  %1 = load ptr, ptr %gpuBodies.addr, align 8
  %2 = load ptr, ptr %gpuInertias.addr, align 8
  %3 = load i32, ptr %numBodies.addr, align 4
  %4 = load ptr, ptr %gpuConstraints.addr, align 8
  %5 = load i32, ptr %numConstraints.addr, align 4
  %call = call noundef float @_ZN24b3GpuPgsConstraintSolver10solveGroupEP13b3OpenCLArrayI15b3RigidBodyDataEPS0_I13b3InertiaDataEiPS0_I22b3GpuGenericConstraintEiRK19b3ContactSolverInfo(ptr noundef nonnull align 8 dereferenceable(228) %this1, ptr noundef %1, ptr noundef %2, i32 noundef %3, ptr noundef %4, i32 noundef %5, ptr noundef nonnull align 4 dereferenceable(84) %infoGlobal)
  ret void
}