; Function Attrs: mustprogress uwtable
define dso_local void @_ZN24b3GpuPgsConstraintSolver11solveJointsEiP13b3OpenCLArrayI15b3RigidBodyDataEPS0_I13b3InertiaDataEiPS0_I22b3GpuGenericConstraintE(ptr noundef nonnull align 8 dereferenceable(228) %this, i32 noundef %numBodies, ptr noundef %gpuBodies, ptr noundef %gpuInertias, i32 noundef %numConstraints, ptr noundef %gpuConstraints) local_unnamed_addr #1 align 2 {
entry:
  %infoGlobal = alloca %struct.b3ContactSolverInfo, align 16
  %m_restitution.i = getelementptr inbounds i8, ptr %infoGlobal, i64 16
  store float 0.000000e+00, ptr %m_restitution.i, align 16
  %m_maxErrorReduction.i = getelementptr inbounds i8, ptr %infoGlobal, i64 24
  %m_numIterations.i = getelementptr inbounds i8, ptr %infoGlobal, i64 20
  %m_globalCfm.i = getelementptr inbounds i8, ptr %infoGlobal, i64 40
  store float 0.000000e+00, ptr %m_globalCfm.i, align 8
  store <4 x float> <float 2.000000e+01, float 1.000000e+00, float 0x3FC99999A0000000, float 0x3FE99999A0000000>, ptr %m_maxErrorReduction.i, align 8
  %m_splitImpulse.i = getelementptr inbounds i8, ptr %infoGlobal, i64 44
  %m_splitImpulsePenetrationThreshold.i = getelementptr inbounds i8, ptr %infoGlobal, i64 48
  store <4 x float> <float 0xBFA47AE140000000, float 0x3FB99999A0000000, float 0.000000e+00, float 0x3FEB333340000000>, ptr %m_splitImpulsePenetrationThreshold.i, align 16
  %m_solverMode.i = getelementptr inbounds i8, ptr %infoGlobal, i64 64
  %m_restingContactRestitutionThreshold.i = getelementptr inbounds i8, ptr %infoGlobal, i64 68
  store i32 2, ptr %m_restingContactRestitutionThreshold.i, align 4
  %m_minimumSolverBatchSize.i = getelementptr inbounds i8, ptr %infoGlobal, i64 72
  store i32 128, ptr %m_minimumSolverBatchSize.i, align 8
  %m_maxGyroscopicForce.i = getelementptr inbounds i8, ptr %infoGlobal, i64 76
  store <2 x float> <float 1.000000e+02, float 0x46293E5940000000>, ptr %m_maxGyroscopicForce.i, align 4
  store i32 0, ptr %m_splitImpulse.i, align 4
  store <4 x float> <float 0x3FE3333340000000, float 1.000000e+00, float 0x3FD3333340000000, float 0x3F91111120000000>, ptr %infoGlobal, align 16
  store i32 4, ptr %m_numIterations.i, align 4
  store i32 276, ptr %m_solverMode.i, align 16
  %call = call noundef float @_ZN24b3GpuPgsConstraintSolver10solveGroupEP13b3OpenCLArrayI15b3RigidBodyDataEPS0_I13b3InertiaDataEiPS0_I22b3GpuGenericConstraintEiRK19b3ContactSolverInfo(ptr noundef nonnull align 8 dereferenceable(228) %this, ptr noundef %gpuBodies, ptr noundef %gpuInertias, i32 noundef %numBodies, ptr noundef %gpuConstraints, i32 noundef %numConstraints, ptr noundef nonnull align 4 dereferenceable(84) %infoGlobal)
  ret void
}